target datalayout = "e-m:e-p270:32:32-p271:32:32-p272:64:64-i64:64-i128:128-f80:128-n8:16:32:64-S128"
target triple = "x86_64-pc-linux-gnu"

%struct.ImGuiIO = type { i32, i32, %struct.ImVec2, float, float, ptr, ptr, ptr, ptr, float, i8, ptr, %struct.ImVec2, i8, i8, i8, i8, i8, i8, i8, i8, i8, i8, float, float, float, float, float, float, i8, i8, i8, i8, i8, i8, i8, i8, i8, i8, ptr, ptr, ptr, ptr, ptr, i8, i8, i8, i8, i8, i8, i8, float, i32, i32, i32, i32, %struct.ImVec2, ptr, %struct.ImVec2, [5 x i8], float, float, i32, i8, i8, i8, i8, i32, [154 x %struct.ImGuiKeyData], i8, %struct.ImVec2, [5 x %struct.ImVec2], [5 x double], [5 x i8], [5 x i8], [5 x i16], [5 x i16], [5 x i8], [5 x i8], [5 x i8], i8, i8, [5 x float], [5 x float], [5 x float], float, i8, i8, i8, i8, i16, %struct.ImVector }
%struct.ImGuiKeyData = type { i8, float, float, float }
%struct.ImVec2 = type { float, float }
%struct.ImVector = type { i32, i32, ptr }
%struct.ImGui_ImplOpenGL3_Data = type <{ i32, [32 x i8], i8, i8, i8, i8, i32, i32, i32, i32, i32, i32, i32, i32, i32, i32, i64, i64, i8, i8, i8, [5 x i8] }>

; Function Attrs: mustprogress uwtable
define internal noundef ptr @_ZL32ImGui_ImplOpenGL3_GetBackendDatav() #0 {
  %1 = call noundef ptr @_ZN5ImGui17GetCurrentContextEv()
  %2 = icmp ne ptr %1, null
  br i1 %2, label %3, label %7

3:                                                ; preds = %0
  %4 = call noundef nonnull align 8 dereferenceable(2944) ptr @_ZN5ImGui5GetIOEv()
  %5 = getelementptr inbounds nuw %struct.ImGuiIO, ptr %4, i32 0, i32 42
  %6 = load ptr, ptr %5, align 8, !tbaa !26
  br label %8

7:                                                ; preds = %0
  br label %8

8:                                                ; preds = %7, %3
  %9 = phi ptr [ %6, %3 ], [ null, %7 ]
  ret ptr %9
}

; Function Attrs: mustprogress uwtable
define dso_local void @_Z26ImGui_ImplOpenGL3_NewFramev() #0 {
  %1 = alloca ptr, align 8
  call void @llvm.lifetime.start.p0(i64 8, ptr %1) #11
  %2 = call noundef ptr @_ZL32ImGui_ImplOpenGL3_GetBackendDatav()
  store ptr %2, ptr %1, align 8, !tbaa !24
  %3 = load ptr, ptr %1, align 8, !tbaa !24
  %4 = getelementptr inbounds nuw %struct.ImGui_ImplOpenGL3_Data, ptr %3, i32 0, i32 8
  %5 = load i32, ptr %4, align 8, !tbaa !54
  %6 = icmp ne i32 %5, 0
  br i1 %6, label %9, label %7

7:                                                ; preds = %0
  %8 = call noundef zeroext i1 @_Z37ImGui_ImplOpenGL3_CreateDeviceObjectsv()
  br label %9

9:                                                ; preds = %7, %0
  %10 = load ptr, ptr %1, align 8, !tbaa !24
  %11 = getelementptr inbounds nuw %struct.ImGui_ImplOpenGL3_Data, ptr %10, i32 0, i32 7
  %12 = load i32, ptr %11, align 4, !tbaa !55
  %13 = icmp ne i32 %12, 0
  br i1 %13, label %16, label %14

14:                                               ; preds = %9
  %15 = call noundef zeroext i1 @_Z36ImGui_ImplOpenGL3_CreateFontsTexturev()
  br label %16

16:                                               ; preds = %14, %9
  call void @llvm.lifetime.end.p0(i64 8, ptr %1) #11
  ret void
}