; Function Attrs: mustprogress uwtable
define dso_local void @_Z26ImGui_ImplOpenGL3_NewFramev() local_unnamed_addr #0 {
_ZL32ImGui_ImplOpenGL3_GetBackendDatav.exit:
  %0 = tail call noundef ptr @_ZN5ImGui17GetCurrentContextEv()
  %.not.i = icmp ne ptr %0, null
  tail call void @llvm.assume(i1 %.not.i)
  %1 = tail call noundef nonnull align 8 dereferenceable(2944) ptr @_ZN5ImGui5GetIOEv()
  %2 = getelementptr inbounds nuw i8, ptr %1, i64 152
  %3 = load ptr, ptr %2, align 8, !tbaa !19
  %4 = getelementptr inbounds nuw i8, ptr %3, i64 48
  %5 = load i32, ptr %4, align 8, !tbaa !49
  %.not = icmp eq i32 %5, 0
  br i1 %.not, label %6, label %8

6:                                                ; preds = %_ZL32ImGui_ImplOpenGL3_GetBackendDatav.exit
  %7 = tail call noundef zeroext i1 @_Z37ImGui_ImplOpenGL3_CreateDeviceObjectsv()
  br label %8

8:                                                ; preds = %6, %_ZL32ImGui_ImplOpenGL3_GetBackendDatav.exit
  %9 = getelementptr inbounds nuw i8, ptr %3, i64 44
  %10 = load i32, ptr %9, align 4, !tbaa !50
  %.not2 = icmp eq i32 %10, 0
  br i1 %.not2, label %11, label %13

11:                                               ; preds = %8
  %12 = tail call noundef zeroext i1 @_Z36ImGui_ImplOpenGL3_CreateFontsTexturev()
  br label %13

13:                                               ; preds = %11, %8
  ret void
}